target datalayout = "e-m:e-p270:32:32-p271:32:32-p272:64:64-i64:64-i128:128-f80:128-n8:16:32:64-S128"
target triple = "x86_64-pc-linux-gnu"

%struct.Color = type { i8, i8, i8, i8 }

; Function Attrs: nounwind uwtable
define void @DrawCircleGradient(i32 noundef %0, i32 noundef %1, float noundef %2, i32 %3, i32 %4) #2 {
  %6 = alloca %struct.Color, align 1
  %7 = alloca %struct.Color, align 1
  %8 = alloca i32, align 4
  %9 = alloca i32, align 4
  %10 = alloca float, align 4
  %11 = alloca i32, align 4
  store i32 %3, ptr %6, align 1
  store i32 %4, ptr %7, align 1
  store i32 %0, ptr %8, align 4
  store i32 %1, ptr %9, align 4
  store float %2, ptr %10, align 4
  call void @rlBegin(i32 noundef 4)
  call void @llvm.lifetime.start.p0(i64 4, ptr %11) #8
  store i32 0, ptr %11, align 4
  br label %12

12:                                               ; preds = %79, %5
  %13 = load i32, ptr %11, align 4
  %14 = icmp slt i32 %13, 360
  br i1 %14, label %16, label %15

15:                                               ; preds = %12
  call void @llvm.lifetime.end.p0(i64 4, ptr %11) #8
  br label %82

16:                                               ; preds = %12
  %17 = getelementptr inbounds nuw %struct.Color, ptr %6, i32 0, i32 0
  %18 = load i8, ptr %17, align 1
  %19 = getelementptr inbounds nuw %struct.Color, ptr %6, i32 0, i32 1
  %20 = load i8, ptr %19, align 1
  %21 = getelementptr inbounds nuw %struct.Color, ptr %6, i32 0, i32 2
  %22 = load i8, ptr %21, align 1
  %23 = getelementptr inbounds nuw %struct.Color, ptr %6, i32 0, i32 3
  %24 = load i8, ptr %23, align 1
  call void @rlColor4ub(i8 noundef zeroext %18, i8 noundef zeroext %20, i8 noundef zeroext %22, i8 noundef zeroext %24)
  %25 = load i32, ptr %8, align 4
  %26 = sitofp i32 %25 to float
  %27 = load i32, ptr %9, align 4
  %28 = sitofp i32 %27 to float
  call void @rlVertex2f(float noundef %26, float noundef %28)
  %29 = getelementptr inbounds nuw %struct.Color, ptr %7, i32 0, i32 0
  %30 = load i8, ptr %29, align 1
  %31 = getelementptr inbounds nuw %struct.Color, ptr %7, i32 0, i32 1
  %32 = load i8, ptr %31, align 1
  %33 = getelementptr inbounds nuw %struct.Color, ptr %7, i32 0, i32 2
  %34 = load i8, ptr %33, align 1
  %35 = getelementptr inbounds nuw %struct.Color, ptr %7, i32 0, i32 3
  %36 = load i8, ptr %35, align 1
  call void @rlColor4ub(i8 noundef zeroext %30, i8 noundef zeroext %32, i8 noundef zeroext %34, i8 noundef zeroext %36)
  %37 = load i32, ptr %8, align 4
  %38 = sitofp i32 %37 to float
  %39 = load i32, ptr %11, align 4
  %40 = add nsw i32 %39, 10
  %41 = sitofp i32 %40 to float
  %42 = fmul float 0x3F91DF46A0000000, %41
  %43 = call float @cosf(float noundef %42) #8
  %44 = load float, ptr %10, align 4
  %45 = call float @llvm.fmuladd.f32(float %43, float %44, float %38)
  %46 = load i32, ptr %9, align 4
  %47 = sitofp i32 %46 to float
  %48 = load i32, ptr %11, align 4
  %49 = add nsw i32 %48, 10
  %50 = sitofp i32 %49 to float
  %51 = fmul float 0x3F91DF46A0000000, %50
  %52 = call float @sinf(float noundef %51) #8
  %53 = load float, ptr %10, align 4
  %54 = call float @llvm.fmuladd.f32(float %52, float %53, float %47)
  call void @rlVertex2f(float noundef %45, float noundef %54)
  %55 = getelementptr inbounds nuw %struct.Color, ptr %7, i32 0, i32 0
  %56 = load i8, ptr %55, align 1
  %57 = getelementptr inbounds nuw %struct.Color, ptr %7, i32 0, i32 1
  %58 = load i8, ptr %57, align 1
  %59 = getelementptr inbounds nuw %struct.Color, ptr %7, i32 0, i32 2
  %60 = load i8, ptr %59, align 1
  %61 = getelementptr inbounds nuw %struct.Color, ptr %7, i32 0, i32 3
  %62 = load i8, ptr %61, align 1
  call void @rlColor4ub(i8 noundef zeroext %56, i8 noundef zeroext %58, i8 noundef zeroext %60, i8 noundef zeroext %62)
  %63 = load i32, ptr %8, align 4
  %64 = sitofp i32 %63 to float
  %65 = load i32, ptr %11, align 4
  %66 = sitofp i32 %65 to float
  %67 = fmul float 0x3F91DF46A0000000, %66
  %68 = call float @cosf(float noundef %67) #8
  %69 = load float, ptr %10, align 4
  %70 = call float @llvm.fmuladd.f32(float %68, float %69, float %64)
  %71 = load i32, ptr %9, align 4
  %72 = sitofp i32 %71 to float
  %73 = load i32, ptr %11, align 4
  %74 = sitofp i32 %73 to float
  %75 = fmul float 0x3F91DF46A0000000, %74
  %76 = call float @sinf(float noundef %75) #8
  %77 = load float, ptr %10, align 4
  %78 = call float @llvm.fmuladd.f32(float %76, float %77, float %72)
  call void @rlVertex2f(float noundef %70, float noundef %78)
  br label %79

79:                                               ; preds = %16
  %80 = load i32, ptr %11, align 4
  %81 = add nsw i32 %80, 10
  store i32 %81, ptr %11, align 4
  br label %12

82:                                               ; preds = %15
  call void @rlEnd()
  ret void
}